; Function Attrs: mustprogress nounwind uwtable
define internal fastcc noundef zeroext i1 @_ZL18domTreeLevelBeforePN4llvm13DominatorTreeEPKNS_11InstructionES4_(ptr noundef nonnull %0, ptr noundef nonnull %1, ptr noundef nonnull %2) unnamed_addr #0 {
  %4 = getelementptr inbounds nuw i8, ptr %1, i64 40
  %5 = load ptr, ptr %4, align 8
  %6 = getelementptr inbounds nuw i8, ptr %2, i64 40
  %7 = load ptr, ptr %6, align 8
  %8 = icmp eq ptr %5, %7
  br i1 %8, label %9, label %11

9:                                                ; preds = %3
  %10 = tail call noundef zeroext i1 @_ZNK4llvm11Instruction11comesBeforeEPKS0_(ptr noundef nonnull align 8 dereferenceable(72) %1, ptr noundef nonnull %2) #7
  br label %18

11:                                               ; preds = %3
  %12 = tail call noundef ptr @_ZNK4llvm17DominatorTreeBaseINS_10BasicBlockELb0EE7getNodeEPKS1_(ptr noundef nonnull align 8 dereferenceable(124) %0, ptr noundef %5) #7
  %13 = load ptr, ptr %6, align 8
  %14 = tail call noundef ptr @_ZNK4llvm17DominatorTreeBaseINS_10BasicBlockELb0EE7getNodeEPKS1_(ptr noundef nonnull align 8 dereferenceable(124) %0, ptr noundef %13) #7
  %15 = tail call noundef i32 @_ZNK4llvm15DomTreeNodeBaseINS_10BasicBlockEE8getLevelEv(ptr noundef nonnull align 8 dereferenceable(80) %12) #7
  %16 = tail call noundef i32 @_ZNK4llvm15DomTreeNodeBaseINS_10BasicBlockEE8getLevelEv(ptr noundef nonnull align 8 dereferenceable(80) %14) #7
  %17 = icmp ult i32 %15, %16
  br label %18

18:                                               ; preds = %11, %9
  %.0 = phi i1 [ %10, %9 ], [ %17, %11 ]
  ret i1 %.0
}